target datalayout = "e-m:e-p270:32:32-p271:32:32-p272:64:64-i64:64-i128:128-f80:128-n8:16:32:64-S128"
target triple = "x86_64-unknown-linux-gnu"

%struct.anon = type { ptr }
%struct.TPMBackend = type { %struct.Object, ptr, i8, i8, ptr, ptr, %struct.anon.0 }
%struct.Object = type { ptr, ptr, ptr, i32, ptr }
%struct.anon.0 = type { ptr, ptr }

@tpm_backends = internal global %struct.anon zeroinitializer, align 8

; Function Attrs: nounwind sspstrong uwtable
define dso_local ptr @qemu_find_tpm_be(ptr noundef %id) #0 {
entry:
  %retval = alloca ptr, align 8
  %id.addr = alloca ptr, align 8
  %drv = alloca ptr, align 8
  store ptr %id, ptr %id.addr, align 8
  %0 = load ptr, ptr %id.addr, align 8
  %tobool = icmp ne ptr %0, null
  br i1 %tobool, label %if.then, label %if.end5

if.then:                                          ; preds = %entry
  %1 = load ptr, ptr @tpm_backends, align 8
  store ptr %1, ptr %drv, align 8
  br label %for.cond

for.cond:                                         ; preds = %for.inc, %if.then
  %2 = load ptr, ptr %drv, align 8
  %tobool1 = icmp ne ptr %2, null
  br i1 %tobool1, label %for.body, label %for.end

for.body:                                         ; preds = %for.cond
  %3 = load ptr, ptr %drv, align 8
  %id2 = getelementptr inbounds %struct.TPMBackend, ptr %3, i32 0, i32 5
  %4 = load ptr, ptr %id2, align 8
  %5 = load ptr, ptr %id.addr, align 8
  %call = call i32 @strcmp(ptr noundef %4, ptr noundef %5) #4
  %tobool3 = icmp ne i32 %call, 0
  br i1 %tobool3, label %if.end, label %if.then4

if.then4:                                         ; preds = %for.body
  %6 = load ptr, ptr %drv, align 8
  store ptr %6, ptr %retval, align 8
  br label %return

if.end:                                           ; preds = %for.body
  br label %for.inc

for.inc:                                          ; preds = %if.end
  %7 = load ptr, ptr %drv, align 8
  %list = getelementptr inbounds %struct.TPMBackend, ptr %7, i32 0, i32 6
  %le_next = getelementptr inbounds %struct.anon.0, ptr %list, i32 0, i32 0
  %8 = load ptr, ptr %le_next, align 8
  store ptr %8, ptr %drv, align 8
  br label %for.cond, !llvm.loop !5

for.end:                                          ; preds = %for.cond
  br label %if.end5

if.end5:                                          ; preds = %for.end, %entry
  store ptr null, ptr %retval, align 8
  br label %return

return:                                           ; preds = %if.end5, %if.then4
  %9 = load ptr, ptr %retval, align 8
  ret ptr %9
}