; Function Attrs: nofree nounwind sspstrong memory(read, inaccessiblemem: none) uwtable
define dso_local ptr @qemu_find_tpm_be(ptr noundef readonly %id) local_unnamed_addr #0 {
entry:
  %tobool.not = icmp eq ptr %id, null
  %drv.05 = load ptr, ptr @tpm_backends, align 8
  %tobool1.not6 = icmp eq ptr %drv.05, null
  %or.cond = select i1 %tobool.not, i1 true, i1 %tobool1.not6
  br i1 %or.cond, label %return, label %for.body

for.body:                                         ; preds = %entry, %for.inc
  %drv.07 = phi ptr [ %drv.0, %for.inc ], [ %drv.05, %entry ]
  %id2 = getelementptr inbounds nuw i8, ptr %drv.07, i64 64
  %0 = load ptr, ptr %id2, align 8
  %call = tail call i32 @strcmp(ptr noundef nonnull dereferenceable(1) %0, ptr noundef nonnull dereferenceable(1) %id) #6
  %tobool3.not = icmp eq i32 %call, 0
  br i1 %tobool3.not, label %return, label %for.inc

for.inc:                                          ; preds = %for.body
  %list = getelementptr inbounds nuw i8, ptr %drv.07, i64 72
  %drv.0 = load ptr, ptr %list, align 8
  %tobool1.not = icmp eq ptr %drv.0, null
  br i1 %tobool1.not, label %return, label %for.body, !llvm.loop !5

return:                                           ; preds = %for.body, %for.inc, %entry
  %retval.0 = phi ptr [ null, %entry ], [ %drv.07, %for.body ], [ null, %for.inc ]
  ret ptr %retval.0
}